target datalayout = "e-m:e-p270:32:32-p271:32:32-p272:64:64-i64:64-i128:128-f80:128-n8:16:32:64-S128"
target triple = "x86_64-pc-linux-gnu"

%"class.Ipopt::CGPenaltyData" = type <{ %"class.Ipopt::IpoptAdditionalData.base", [4 x i8], %"class.Ipopt::SmartPtr", i8, [7 x i8], %"class.Ipopt::SmartPtr", i8, i8, [2 x i8], i32, double, double, i8, [7 x i8], double, i8, [7 x i8], double, double, i8, [7 x i8] }>
%"class.Ipopt::IpoptAdditionalData.base" = type { %"class.Ipopt::ReferencedObject.base" }
%"class.Ipopt::ReferencedObject.base" = type <{ ptr, i32 }>
%"class.Ipopt::SmartPtr" = type { ptr }
%"class.Ipopt::ReferencedObject" = type <{ ptr, i32, [4 x i8] }>

; Function Attrs: mustprogress nounwind uwtable
define linkonce_odr noundef i32 @_ZNK5Ipopt16ReferencedObject14ReferenceCountEv(ptr noundef nonnull align 8 dereferenceable(12) %0) #5 comdat align 2 {
  %2 = alloca ptr, align 8
  store ptr %0, ptr %2, align 8
  %3 = load ptr, ptr %2, align 8
  %4 = getelementptr inbounds %"class.Ipopt::ReferencedObject", ptr %3, i32 0, i32 1
  %5 = load i32, ptr %4, align 8
  ret i32 %5
}

; Function Attrs: mustprogress nounwind uwtable
define linkonce_odr void @_ZNK5Ipopt16ReferencedObject10ReleaseRefEPKNS_10ReferencerE(ptr noundef nonnull align 8 dereferenceable(12) %0, ptr noundef %1) #5 comdat align 2 {
  %3 = alloca ptr, align 8
  %4 = alloca ptr, align 8
  store ptr %0, ptr %3, align 8
  store ptr %1, ptr %4, align 8
  %5 = load ptr, ptr %3, align 8
  %6 = getelementptr inbounds %"class.Ipopt::ReferencedObject", ptr %5, i32 0, i32 1
  %7 = load i32, ptr %6, align 8
  %8 = add nsw i32 %7, -1
  store i32 %8, ptr %6, align 8
  ret void
}

; Function Attrs: mustprogress uwtable
define linkonce_odr void @_ZN5Ipopt8SmartPtrIKNS_14IteratesVectorEE15ReleasePointer_Ev(ptr noundef nonnull align 8 dereferenceable(8) %0) #4 comdat align 2 {
  %2 = alloca ptr, align 8
  store ptr %0, ptr %2, align 8
  %3 = load ptr, ptr %2, align 8
  %4 = getelementptr inbounds %"class.Ipopt::SmartPtr", ptr %3, i32 0, i32 0
  %5 = load ptr, ptr %4, align 8
  %6 = icmp ne ptr %5, null
  br i1 %6, label %7, label %24

7:                                                ; preds = %1
  %8 = getelementptr inbounds %"class.Ipopt::SmartPtr", ptr %3, i32 0, i32 0
  %9 = load ptr, ptr %8, align 8
  call void @_ZNK5Ipopt16ReferencedObject10ReleaseRefEPKNS_10ReferencerE(ptr noundef nonnull align 8 dereferenceable(12) %9, ptr noundef %3)
  %10 = getelementptr inbounds %"class.Ipopt::SmartPtr", ptr %3, i32 0, i32 0
  %11 = load ptr, ptr %10, align 8
  %12 = call noundef i32 @_ZNK5Ipopt16ReferencedObject14ReferenceCountEv(ptr noundef nonnull align 8 dereferenceable(12) %11)
  %13 = icmp eq i32 %12, 0
  br i1 %13, label %14, label %23

14:                                               ; preds = %7
  %15 = getelementptr inbounds %"class.Ipopt::SmartPtr", ptr %3, i32 0, i32 0
  %16 = load ptr, ptr %15, align 8
  %17 = icmp eq ptr %16, null
  br i1 %17, label %22, label %18

18:                                               ; preds = %14
  %19 = load ptr, ptr %16, align 8
  %20 = getelementptr inbounds ptr, ptr %19, i64 1
  %21 = load ptr, ptr %20, align 8
  call void %21(ptr noundef nonnull align 8 dereferenceable(280) %16) #3
  br label %22

22:                                               ; preds = %18, %14
  br label %23

23:                                               ; preds = %22, %7
  br label %24

24:                                               ; preds = %23, %1
  ret void
}

; Function Attrs: mustprogress nounwind uwtable
define linkonce_odr void @_ZNK5Ipopt16ReferencedObject6AddRefEPKNS_10ReferencerE(ptr noundef nonnull align 8 dereferenceable(12) %0, ptr noundef %1) #5 comdat align 2 {
  %3 = alloca ptr, align 8
  %4 = alloca ptr, align 8
  store ptr %0, ptr %3, align 8
  store ptr %1, ptr %4, align 8
  %5 = load ptr, ptr %3, align 8
  %6 = getelementptr inbounds %"class.Ipopt::ReferencedObject", ptr %5, i32 0, i32 1
  %7 = load i32, ptr %6, align 8
  %8 = add nsw i32 %7, 1
  store i32 %8, ptr %6, align 8
  ret void
}

; Function Attrs: mustprogress uwtable
define linkonce_odr noundef nonnull align 8 dereferenceable(8) ptr @_ZN5Ipopt8SmartPtrIKNS_14IteratesVectorEE14SetFromRawPtr_EPS2_(ptr noundef nonnull align 8 dereferenceable(8) %0, ptr noundef %1) #4 comdat align 2 {
  %3 = alloca ptr, align 8
  %4 = alloca ptr, align 8
  store ptr %0, ptr %3, align 8
  store ptr %1, ptr %4, align 8
  %5 = load ptr, ptr %3, align 8
  %6 = load ptr, ptr %4, align 8
  %7 = icmp ne ptr %6, null
  br i1 %7, label %8, label %10

8:                                                ; preds = %2
  %9 = load ptr, ptr %4, align 8
  call void @_ZNK5Ipopt16ReferencedObject6AddRefEPKNS_10ReferencerE(ptr noundef nonnull align 8 dereferenceable(12) %9, ptr noundef %5)
  br label %10

10:                                               ; preds = %8, %2
  call void @_ZN5Ipopt8SmartPtrIKNS_14IteratesVectorEE15ReleasePointer_Ev(ptr noundef nonnull align 8 dereferenceable(8) %5)
  %11 = load ptr, ptr %4, align 8
  %12 = getelementptr inbounds %"class.Ipopt::SmartPtr", ptr %5, i32 0, i32 0
  store ptr %11, ptr %12, align 8
  ret ptr %5
}

; Function Attrs: mustprogress uwtable
define linkonce_odr noundef nonnull align 8 dereferenceable(8) ptr @_ZN5Ipopt8SmartPtrIKNS_14IteratesVectorEEaSEPS2_(ptr noundef nonnull align 8 dereferenceable(8) %0, ptr noundef %1) #4 comdat align 2 {
  %3 = alloca ptr, align 8
  %4 = alloca ptr, align 8
  store ptr %0, ptr %3, align 8
  store ptr %1, ptr %4, align 8
  %5 = load ptr, ptr %3, align 8
  %6 = load ptr, ptr %4, align 8
  %7 = call noundef nonnull align 8 dereferenceable(8) ptr @_ZN5Ipopt8SmartPtrIKNS_14IteratesVectorEE14SetFromRawPtr_EPS2_(ptr noundef nonnull align 8 dereferenceable(8) %5, ptr noundef %6)
  ret ptr %7
}

; Function Attrs: mustprogress uwtable
define noundef zeroext i1 @_ZN5Ipopt13CGPenaltyData24InitializeDataStructuresEv(ptr noundef nonnull align 8 dereferenceable(105) %0) unnamed_addr #4 align 2 {
  %2 = alloca ptr, align 8
  store ptr %0, ptr %2, align 8
  %3 = load ptr, ptr %2, align 8
  %4 = getelementptr inbounds %"class.Ipopt::CGPenaltyData", ptr %3, i32 0, i32 2
  %5 = call noundef nonnull align 8 dereferenceable(8) ptr @_ZN5Ipopt8SmartPtrIKNS_14IteratesVectorEEaSEPS2_(ptr noundef nonnull align 8 dereferenceable(8) %4, ptr noundef null)
  %6 = getelementptr inbounds %"class.Ipopt::CGPenaltyData", ptr %3, i32 0, i32 5
  %7 = call noundef nonnull align 8 dereferenceable(8) ptr @_ZN5Ipopt8SmartPtrIKNS_14IteratesVectorEEaSEPS2_(ptr noundef nonnull align 8 dereferenceable(8) %6, ptr noundef null)
  %8 = getelementptr inbounds %"class.Ipopt::CGPenaltyData", ptr %3, i32 0, i32 3
  store i8 0, ptr %8, align 8
  %9 = getelementptr inbounds %"class.Ipopt::CGPenaltyData", ptr %3, i32 0, i32 6
  store i8 0, ptr %9, align 8
  ret i1 true
}